; Function Attrs: nounwind uwtable
define hidden void @zif_hash_hmac_file(ptr noundef readonly captures(none) %0, ptr noundef writeonly captures(none) %1) #0 {
  %3 = alloca ptr, align 8
  %4 = alloca ptr, align 8
  %5 = alloca ptr, align 8
  %6 = alloca i64, align 8
  %7 = alloca i64, align 8
  %8 = alloca i8, align 1
  call void @llvm.lifetime.start.p0(i64 8, ptr nonnull %3) #16
  call void @llvm.lifetime.start.p0(i64 8, ptr nonnull %4) #16
  call void @llvm.lifetime.start.p0(i64 8, ptr nonnull %5) #16
  call void @llvm.lifetime.start.p0(i64 8, ptr nonnull %6) #16
  call void @llvm.lifetime.start.p0(i64 8, ptr nonnull %7) #16
  call void @llvm.lifetime.start.p0(i64 1, ptr nonnull %8) #16
  store i8 0, ptr %8, align 1, !tbaa !36
  %9 = getelementptr inbounds nuw i8, ptr %0, i64 44
  %10 = load i32, ptr %9, align 4, !tbaa !4
  %11 = call i32 (i32, ptr, ...) @zend_parse_parameters(i32 noundef %10, ptr noundef nonnull @.str, ptr noundef nonnull %3, ptr noundef nonnull %4, ptr noundef nonnull %6, ptr noundef nonnull %5, ptr noundef nonnull %7, ptr noundef nonnull %8) #16
  %12 = icmp eq i32 %11, -1
  br i1 %12, label %13, label %16

13:                                               ; preds = %2
  %14 = load ptr, ptr getelementptr inbounds nuw (i8, ptr @executor_globals, i64 960), align 8, !tbaa !47
  %15 = icmp ne ptr %14, null
  call void @llvm.assume(i1 %15)
  br label %24

16:                                               ; preds = %2
  %17 = load ptr, ptr %3, align 8, !tbaa !40
  %18 = load ptr, ptr %4, align 8, !tbaa !17
  %19 = load i64, ptr %6, align 8, !tbaa !18
  %20 = load ptr, ptr %5, align 8, !tbaa !17
  %21 = load i64, ptr %7, align 8, !tbaa !18
  %22 = load i8, ptr %8, align 1, !tbaa !36, !range !46, !noundef !7
  %23 = trunc nuw i8 %22 to i1
  call fastcc void @php_hash_do_hash_hmac(ptr noundef %1, ptr noundef %17, ptr noundef %18, i64 noundef %19, ptr noundef %20, i64 noundef %21, i1 noundef zeroext %23, i1 noundef zeroext true)
  br label %24

24:                                               ; preds = %16, %13
  call void @llvm.lifetime.end.p0(i64 1, ptr nonnull %8) #16
  call void @llvm.lifetime.end.p0(i64 8, ptr nonnull %7) #16
  call void @llvm.lifetime.end.p0(i64 8, ptr nonnull %6) #16
  call void @llvm.lifetime.end.p0(i64 8, ptr nonnull %5) #16
  call void @llvm.lifetime.end.p0(i64 8, ptr nonnull %4) #16
  call void @llvm.lifetime.end.p0(i64 8, ptr nonnull %3) #16
  ret void
}